; Function Attrs: mustprogress uwtable
define noundef zeroext i16 @_ZNK10open_spiel10phantom_go14PhantomGoBoard5Chain14single_libertyEv(ptr nocapture noundef nonnull readonly align 4 dereferenceable(12) %0) local_unnamed_addr #8 align 2 personality ptr @__gxx_personality_v0 {
  %2 = alloca %"class.std::__cxx11::basic_string", align 8
  %3 = alloca i32, align 4
  %4 = alloca i32, align 4
  %5 = alloca i32, align 4
  %6 = alloca %"class.std::__cxx11::basic_string", align 8
  %7 = alloca i32, align 4
  %8 = getelementptr inbounds nuw i8, ptr %0, i64 8
  %9 = load i16, ptr %8, align 4
  %10 = zext i16 %9 to i32
  %11 = load i32, ptr %0, align 4
  %12 = mul i32 %11, %10
  %13 = getelementptr inbounds nuw i8, ptr %0, i64 4
  %14 = load i16, ptr %13, align 4
  %15 = zext i16 %14 to i32
  %16 = mul nuw i32 %15, %15
  %17 = icmp eq i32 %12, %16
  br i1 %17, label %22, label %18

18:                                               ; preds = %1
  store i32 648, ptr %3, align 4
  call void @_ZN10open_spiel8internal11SpielStrCatIJRA146_KcRA2_S2_iRA13_S2_RA11_S2_S6_EEENSt7__cxx1112basic_stringIcSt11char_traitsIcESaIcEEEDpOT_(ptr dead_on_unwind nonnull writable sret(%"class.std::__cxx11::basic_string") align 8 %2, ptr noundef nonnull align 1 dereferenceable(146) @.str.12, ptr noundef nonnull align 1 dereferenceable(2) @.str.13, ptr noundef nonnull align 4 dereferenceable(4) %3, ptr noundef nonnull align 1 dereferenceable(13) @.str.19, ptr noundef nonnull align 1 dereferenceable(11) @.str.29, ptr noundef nonnull align 1 dereferenceable(2) @.str.21)
  invoke void @_ZN10open_spiel15SpielFatalErrorERKNSt7__cxx1112basic_stringIcSt11char_traitsIcESaIcEEE(ptr noundef nonnull align 8 dereferenceable(32) %2) #27
          to label %19 unwind label %20

19:                                               ; preds = %18
  unreachable

20:                                               ; preds = %18
  %21 = landingpad { ptr, i32 }
          cleanup
  br label %32

22:                                               ; preds = %1
  %23 = urem i16 %14, %9
  %24 = udiv i16 %14, %9
  %25 = zext i16 %23 to i32
  store i32 %25, ptr %4, align 4
  store i32 0, ptr %5, align 4
  %26 = icmp eq i16 %23, 0
  br i1 %26, label %31, label %27

27:                                               ; preds = %22
  store i32 658, ptr %7, align 4
  call void @_ZN10open_spiel8internal11SpielStrCatIJRA146_KcRA2_S2_iS6_RA47_S2_RA43_S2_RA4_S2_RiRA7_S2_SD_EEENSt7__cxx1112basic_stringIcSt11char_traitsIcESaIcEEEDpOT_(ptr dead_on_unwind nonnull writable sret(%"class.std::__cxx11::basic_string") align 8 %6, ptr noundef nonnull align 1 dereferenceable(146) @.str.12, ptr noundef nonnull align 1 dereferenceable(2) @.str.13, ptr noundef nonnull align 4 dereferenceable(4) %7, ptr noundef nonnull align 1 dereferenceable(2) @.str.14, ptr noundef nonnull align 1 dereferenceable(47) @.str.30, ptr noundef nonnull align 1 dereferenceable(43) @.str.31, ptr noundef nonnull align 1 dereferenceable(4) @.str.17, ptr noundef nonnull align 4 dereferenceable(4) %4, ptr noundef nonnull align 1 dereferenceable(7) @.str.18, ptr noundef nonnull align 4 dereferenceable(4) %5)
  invoke void @_ZN10open_spiel15SpielFatalErrorERKNSt7__cxx1112basic_stringIcSt11char_traitsIcESaIcEEE(ptr noundef nonnull align 8 dereferenceable(32) %6) #27
          to label %28 unwind label %29

28:                                               ; preds = %27
  unreachable

29:                                               ; preds = %27
  %30 = landingpad { ptr, i32 }
          cleanup
  br label %32

31:                                               ; preds = %22
  ret i16 %24

32:                                               ; preds = %29, %20
  %.sink = phi ptr [ %6, %29 ], [ %2, %20 ]
  %.pn = phi { ptr, i32 } [ %30, %29 ], [ %21, %20 ]
  call void @_ZNSt7__cxx1112basic_stringIcSt11char_traitsIcESaIcEED1Ev(ptr noundef nonnull align 8 dereferenceable(32) %.sink) #26
  resume { ptr, i32 } %.pn
}